; Function Attrs: nounwind uwtable
define internal fastcc noundef zeroext i1 @pages_commit_impl(ptr noundef %0, i64 noundef %1, i1 noundef zeroext %2) unnamed_addr #0 {
  %4 = alloca [64 x i8], align 16
  %5 = load i8, ptr @os_overcommits, align 1, !tbaa !8, !range !10, !noundef !11
  %6 = trunc nuw i8 %5 to i1
  br i1 %6, label %os_pages_commit.exit, label %7

7:                                                ; preds = %3
  %8 = select i1 %2, i32 3, i32 0
  %9 = load i32, ptr @mmap_flags, align 4, !tbaa !4
  %10 = or i32 %9, 16
  %11 = tail call ptr @mmap(ptr noundef %0, i64 noundef %1, i32 noundef %8, i32 noundef %10, i32 noundef -1, i64 noundef 0) #8
  %12 = icmp eq ptr %11, inttoptr (i64 -1 to ptr)
  br i1 %12, label %os_pages_commit.exit, label %13

13:                                               ; preds = %7
  %.not.i = icmp eq ptr %11, %0
  br i1 %.not.i, label %os_pages_commit.exit, label %14

14:                                               ; preds = %13
  %15 = tail call i32 @munmap(ptr noundef %11, i64 noundef %1) #8
  %16 = icmp eq i32 %15, -1
  br i1 %16, label %17, label %os_pages_commit.exit

17:                                               ; preds = %14
  call void @llvm.lifetime.start.p0(i64 64, ptr nonnull %4) #8
  %18 = tail call ptr @__errno_location() #9
  %19 = load i32, ptr %18, align 4, !tbaa !4
  %20 = call i32 @je_buferror(i32 noundef %19, ptr noundef nonnull %4, i64 noundef 64) #8
  call void (ptr, ...) @je_malloc_printf(ptr noundef nonnull @.str.7, ptr noundef nonnull %4) #8
  %21 = load i8, ptr @je_opt_abort, align 1, !tbaa !8, !range !10, !noundef !11
  %22 = trunc nuw i8 %21 to i1
  br i1 %22, label %23, label %24

23:                                               ; preds = %17
  call void @abort() #10
  unreachable

24:                                               ; preds = %17
  call void @llvm.lifetime.end.p0(i64 64, ptr nonnull %4) #8
  br label %os_pages_commit.exit

os_pages_commit.exit:                             ; preds = %24, %14, %13, %7, %3
  %.0 = phi i1 [ true, %3 ], [ true, %7 ], [ false, %13 ], [ true, %14 ], [ true, %24 ]
  ret i1 %.0
}